; Function Attrs: nounwind uwtable
define dso_local ptr @curl_easy_init() local_unnamed_addr #5 {
  %1 = alloca ptr, align 8
  call void @llvm.lifetime.start.p0(i64 8, ptr nonnull %1) #12
  %2 = load i32, ptr @initialized, align 4, !tbaa !4
  %.not = icmp eq i32 %2, 0
  br i1 %.not, label %3, label %global_init.exit.thread

3:                                                ; preds = %0
  store i32 1, ptr @initialized, align 4, !tbaa !4
  store ptr @malloc, ptr @Curl_cmalloc, align 8, !tbaa !8
  store ptr @free, ptr @Curl_cfree, align 8, !tbaa !8
  store ptr @realloc, ptr @Curl_crealloc, align 8, !tbaa !8
  store ptr @strdup, ptr @Curl_cstrdup, align 8, !tbaa !8
  store ptr @calloc, ptr @Curl_ccalloc, align 8, !tbaa !8
  %4 = tail call i32 @Curl_trc_init() #12
  %.not3.i = icmp eq i32 %4, 0
  br i1 %.not3.i, label %5, label %global_init.exit

5:                                                ; preds = %3
  %6 = tail call i32 @Curl_ssl_init() #12
  %.not4.i = icmp eq i32 %6, 0
  br i1 %.not4.i, label %global_init.exit, label %global_init.exit.thread

global_init.exit:                                 ; preds = %3, %5
  %7 = load i32, ptr @initialized, align 4, !tbaa !4
  %8 = add i32 %7, -1
  store i32 %8, ptr @initialized, align 4, !tbaa !4
  br label %11

global_init.exit.thread:                          ; preds = %5, %0
  %9 = call i32 @Curl_open(ptr noundef nonnull %1) #12
  %.not3 = icmp eq i32 %9, 0
  %10 = load ptr, ptr %1, align 8
  %spec.select = select i1 %.not3, ptr %10, ptr null
  br label %11

11:                                               ; preds = %global_init.exit, %global_init.exit.thread
  %.0 = phi ptr [ null, %global_init.exit ], [ %spec.select, %global_init.exit.thread ]
  call void @llvm.lifetime.end.p0(i64 8, ptr nonnull %1) #12
  ret ptr %.0
}